; Function Attrs: mustprogress uwtable
define void @_ZN5Yosys19log_dump_val_workerENS_5RTLIL5StateE(i8 noundef zeroext %0) local_unnamed_addr #4 personality ptr @__gxx_personality_v0 {
  %2 = alloca %"struct.Yosys::RTLIL::SigSpec", align 8
  call void @_ZN5Yosys5RTLIL7SigSpecC1ENS0_5StateEi(ptr noundef nonnull align 8 dereferenceable(64) %2, i8 noundef zeroext %0, i32 noundef 1)
  %3 = invoke noundef ptr @_ZN5Yosys10log_signalERKNS_5RTLIL7SigSpecEb(ptr noundef nonnull align 8 dereferenceable(64) %2, i1 noundef zeroext true)
          to label %4 unwind label %19

4:                                                ; preds = %1
  invoke void (ptr, ...) @_ZN5Yosys3logEPKcz(ptr noundef nonnull @.str.19, ptr noundef %3)
          to label %5 unwind label %19

5:                                                ; preds = %4
  %6 = getelementptr inbounds i8, ptr %2, i64 40
  %7 = load ptr, ptr %6, align 8
  %.not.i.i.i.i = icmp eq ptr %7, null
  br i1 %.not.i.i.i.i, label %_ZNSt6vectorIN5Yosys5RTLIL6SigBitESaIS2_EED2Ev.exit.i, label %8

8:                                                ; preds = %5
  call void @_ZdlPv(ptr noundef nonnull %7) #26
  br label %_ZNSt6vectorIN5Yosys5RTLIL6SigBitESaIS2_EED2Ev.exit.i

_ZNSt6vectorIN5Yosys5RTLIL6SigBitESaIS2_EED2Ev.exit.i: ; preds = %8, %5
  %9 = getelementptr inbounds i8, ptr %2, i64 16
  %10 = load ptr, ptr %9, align 8
  %11 = getelementptr inbounds i8, ptr %2, i64 24
  %12 = load ptr, ptr %11, align 8
  %.not4.i.i.i.i.i = icmp eq ptr %10, %12
  br i1 %.not4.i.i.i.i.i, label %_ZSt8_DestroyIPN5Yosys5RTLIL8SigChunkES2_EvT_S4_RSaIT0_E.exit.i.i, label %.lr.ph.i.i.i.i.i

.lr.ph.i.i.i.i.i:                                 ; preds = %_ZNSt6vectorIN5Yosys5RTLIL6SigBitESaIS2_EED2Ev.exit.i, %_ZSt8_DestroyIN5Yosys5RTLIL8SigChunkEEvPT_.exit.i.i.i.i.i
  %.05.i.i.i.i.i = phi ptr [ %16, %_ZSt8_DestroyIN5Yosys5RTLIL8SigChunkEEvPT_.exit.i.i.i.i.i ], [ %10, %_ZNSt6vectorIN5Yosys5RTLIL6SigBitESaIS2_EED2Ev.exit.i ]
  %13 = getelementptr inbounds i8, ptr %.05.i.i.i.i.i, i64 8
  %14 = load ptr, ptr %13, align 8
  %.not.i.i.i.i.i.i.i.i.i.i = icmp eq ptr %14, null
  br i1 %.not.i.i.i.i.i.i.i.i.i.i, label %_ZSt8_DestroyIN5Yosys5RTLIL8SigChunkEEvPT_.exit.i.i.i.i.i, label %15

15:                                               ; preds = %.lr.ph.i.i.i.i.i
  call void @_ZdlPv(ptr noundef nonnull %14) #26
  br label %_ZSt8_DestroyIN5Yosys5RTLIL8SigChunkEEvPT_.exit.i.i.i.i.i

_ZSt8_DestroyIN5Yosys5RTLIL8SigChunkEEvPT_.exit.i.i.i.i.i: ; preds = %15, %.lr.ph.i.i.i.i.i
  %16 = getelementptr inbounds i8, ptr %.05.i.i.i.i.i, i64 40
  %.not.i.i.i.i.i = icmp eq ptr %16, %12
  br i1 %.not.i.i.i.i.i, label %_ZSt8_DestroyIPN5Yosys5RTLIL8SigChunkES2_EvT_S4_RSaIT0_E.exitthread-pre-split.i.i, label %.lr.ph.i.i.i.i.i, !llvm.loop !16

_ZSt8_DestroyIPN5Yosys5RTLIL8SigChunkES2_EvT_S4_RSaIT0_E.exitthread-pre-split.i.i: ; preds = %_ZSt8_DestroyIN5Yosys5RTLIL8SigChunkEEvPT_.exit.i.i.i.i.i
  %.pr.i.i = load ptr, ptr %9, align 8
  br label %_ZSt8_DestroyIPN5Yosys5RTLIL8SigChunkES2_EvT_S4_RSaIT0_E.exit.i.i

_ZSt8_DestroyIPN5Yosys5RTLIL8SigChunkES2_EvT_S4_RSaIT0_E.exit.i.i: ; preds = %_ZSt8_DestroyIPN5Yosys5RTLIL8SigChunkES2_EvT_S4_RSaIT0_E.exitthread-pre-split.i.i, %_ZNSt6vectorIN5Yosys5RTLIL6SigBitESaIS2_EED2Ev.exit.i
  %17 = phi ptr [ %.pr.i.i, %_ZSt8_DestroyIPN5Yosys5RTLIL8SigChunkES2_EvT_S4_RSaIT0_E.exitthread-pre-split.i.i ], [ %10, %_ZNSt6vectorIN5Yosys5RTLIL6SigBitESaIS2_EED2Ev.exit.i ]
  %.not.i.i.i1.i = icmp eq ptr %17, null
  br i1 %.not.i.i.i1.i, label %_ZN5Yosys5RTLIL7SigSpecD2Ev.exit, label %18

18:                                               ; preds = %_ZSt8_DestroyIPN5Yosys5RTLIL8SigChunkES2_EvT_S4_RSaIT0_E.exit.i.i
  call void @_ZdlPv(ptr noundef nonnull %17) #26
  br label %_ZN5Yosys5RTLIL7SigSpecD2Ev.exit

_ZN5Yosys5RTLIL7SigSpecD2Ev.exit:                 ; preds = %_ZSt8_DestroyIPN5Yosys5RTLIL8SigChunkES2_EvT_S4_RSaIT0_E.exit.i.i, %18
  ret void

19:                                               ; preds = %4, %1
  %20 = landingpad { ptr, i32 }
          cleanup
  call void @_ZN5Yosys5RTLIL7SigSpecD2Ev(ptr noundef nonnull align 8 dereferenceable(64) %2) #27
  resume { ptr, i32 } %20
}